---
triple:          'arm64-apple-darwin'
binary-path:     '/Users/chloe/c/snek/bin/app'
relocations:
  - { offsetInCU: 0xFA9B, offset: 0xFA9B, size: 0x8, addend: 0x0, symName: __ZNSt3__118__debug_db_erase_cB7v160006INS_12basic_stringIjNS_11char_traitsIjEENS_9allocatorIjEEEEEEvPT_, symObjAddr: 0x558, symBinAddr: 0x1000032A0, symSize: 0x10 }
  - { offsetInCU: 0xFACC, offset: 0xFACC, size: 0x8, addend: 0x0, symName: __ZNSt3__119__libcpp_deallocateB7v160006EPvmm, symObjAddr: 0x6D4, symBinAddr: 0x10000341C, symSize: 0x60 }
  - { offsetInCU: 0xFB31, offset: 0xFB31, size: 0x8, addend: 0x0, symName: __ZNSt3__124__is_overaligned_for_newB7v160006Em, symObjAddr: 0x734, symBinAddr: 0x10000347C, symSize: 0x20 }
  - { offsetInCU: 0xFB5F, offset: 0xFB5F, size: 0x8, addend: 0x0, symName: __ZNSt3__127__do_deallocate_handle_sizeB7v160006IJSt11align_val_tEEEvPvmDpT_, symObjAddr: 0x754, symBinAddr: 0x10000349C, symSize: 0x30 }
  - { offsetInCU: 0xFBB2, offset: 0xFBB2, size: 0x8, addend: 0x0, symName: __ZNSt3__127__do_deallocate_handle_sizeB7v160006IJEEEvPvmDpT_, symObjAddr: 0x784, symBinAddr: 0x1000034CC, symSize: 0x28 }
  - { offsetInCU: 0xFBF0, offset: 0xFBF0, size: 0x8, addend: 0x0, symName: __ZNSt3__124__libcpp_operator_deleteB7v160006IJPvSt11align_val_tEEEvDpT_, symObjAddr: 0x7AC, symBinAddr: 0x1000034F4, symSize: 0x2C }
  - { offsetInCU: 0xFC39, offset: 0xFC39, size: 0x8, addend: 0x0, symName: __ZNSt3__124__libcpp_operator_deleteB7v160006IJPvEEEvDpT_, symObjAddr: 0x7D8, symBinAddr: 0x100003520, symSize: 0x24 }
  - { offsetInCU: 0xFC6E, offset: 0xFC6E, size: 0x8, addend: 0x0, symName: __ZNSt3__118__debug_db_erase_cB7v160006INS_6vectorIN2sf7Vector2IiEENS_9allocatorIS4_EEEEEEvPT_, symObjAddr: 0xAB4, symBinAddr: 0x1000037FC, symSize: 0x10 }
  - { offsetInCU: 0xFC9F, offset: 0xFC9F, size: 0x8, addend: 0x0, symName: __ZNSt3__112__to_addressB7v160006IN2sf7Vector2IiEEEEPT_S5_, symObjAddr: 0xBF8, symBinAddr: 0x100003940, symSize: 0x14 }
  - { offsetInCU: 0x12ED9, offset: 0x12ED9, size: 0x8, addend: 0x0, symName: __ZN4Game5startEv, symObjAddr: 0x0, symBinAddr: 0x100002D48, symSize: 0x340 }
  - { offsetInCU: 0x12F78, offset: 0x12F78, size: 0x8, addend: 0x0, symName: __ZN2sf15ContextSettingsC1Ejjjjjjb, symObjAddr: 0x340, symBinAddr: 0x100003088, symSize: 0x70 }
  - { offsetInCU: 0x13004, offset: 0x13004, size: 0x8, addend: 0x0, symName: __ZN2sf6StringD1Ev, symObjAddr: 0x3B0, symBinAddr: 0x1000030F8, symSize: 0x2C }
  - { offsetInCU: 0x13030, offset: 0x13030, size: 0x8, addend: 0x0, symName: __ZN6PlayerD1Ev, symObjAddr: 0x3DC, symBinAddr: 0x100003124, symSize: 0x2C }
  - { offsetInCU: 0x1305C, offset: 0x1305C, size: 0x8, addend: 0x0, symName: __ZN2sf15ContextSettingsC2Ejjjjjjb, symObjAddr: 0x408, symBinAddr: 0x100003150, symSize: 0x74 }
  - { offsetInCU: 0x130E8, offset: 0x130E8, size: 0x8, addend: 0x0, symName: __ZN2sf6StringD2Ev, symObjAddr: 0x47C, symBinAddr: 0x1000031C4, symSize: 0x2C }
  - { offsetInCU: 0x13114, offset: 0x13114, size: 0x8, addend: 0x0, symName: __ZNSt3__112basic_stringIjNS_11char_traitsIjEENS_9allocatorIjEEED1Ev, symObjAddr: 0x4A8, symBinAddr: 0x1000031F0, symSize: 0x2C }
  - { offsetInCU: 0x13140, offset: 0x13140, size: 0x8, addend: 0x0, symName: __ZNSt3__112basic_stringIjNS_11char_traitsIjEENS_9allocatorIjEEED2Ev, symObjAddr: 0x4D4, symBinAddr: 0x10000321C, symSize: 0x84 }
  - { offsetInCU: 0x1316C, offset: 0x1316C, size: 0x8, addend: 0x0, symName: __ZNKSt3__112basic_stringIjNS_11char_traitsIjEENS_9allocatorIjEEE9__is_longB7v160006Ev, symObjAddr: 0x574, symBinAddr: 0x1000032BC, symSize: 0x38 }
  - { offsetInCU: 0x13192, offset: 0x13192, size: 0x8, addend: 0x0, symName: __ZNSt3__116allocator_traitsINS_9allocatorIjEEE10deallocateB7v160006ERS2_Pjm, symObjAddr: 0x5AC, symBinAddr: 0x1000032F4, symSize: 0x34 }
  - { offsetInCU: 0x131D4, offset: 0x131D4, size: 0x8, addend: 0x0, symName: __ZNSt3__112basic_stringIjNS_11char_traitsIjEENS_9allocatorIjEEE7__allocB7v160006Ev, symObjAddr: 0x5E0, symBinAddr: 0x100003328, symSize: 0x24 }
  - { offsetInCU: 0x131FA, offset: 0x131FA, size: 0x8, addend: 0x0, symName: __ZNSt3__112basic_stringIjNS_11char_traitsIjEENS_9allocatorIjEEE18__get_long_pointerB7v160006Ev, symObjAddr: 0x604, symBinAddr: 0x10000334C, symSize: 0x28 }
  - { offsetInCU: 0x13220, offset: 0x13220, size: 0x8, addend: 0x0, symName: __ZNKSt3__112basic_stringIjNS_11char_traitsIjEENS_9allocatorIjEEE14__get_long_capB7v160006Ev, symObjAddr: 0x62C, symBinAddr: 0x100003374, symSize: 0x30 }
  - { offsetInCU: 0x13246, offset: 0x13246, size: 0x8, addend: 0x0, symName: __ZNKSt3__117__compressed_pairINS_12basic_stringIjNS_11char_traitsIjEENS_9allocatorIjEEE5__repES5_E5firstB7v160006Ev, symObjAddr: 0x65C, symBinAddr: 0x1000033A4, symSize: 0x24 }
  - { offsetInCU: 0x1326C, offset: 0x1326C, size: 0x8, addend: 0x0, symName: __ZNKSt3__122__compressed_pair_elemINS_12basic_stringIjNS_11char_traitsIjEENS_9allocatorIjEEE5__repELi0ELb0EE5__getB7v160006Ev, symObjAddr: 0x680, symBinAddr: 0x1000033C8, symSize: 0x14 }
  - { offsetInCU: 0x13292, offset: 0x13292, size: 0x8, addend: 0x0, symName: __ZNSt3__19allocatorIjE10deallocateB7v160006EPjm, symObjAddr: 0x694, symBinAddr: 0x1000033DC, symSize: 0x40 }
  - { offsetInCU: 0x132D4, offset: 0x132D4, size: 0x8, addend: 0x0, symName: __ZNSt3__117__compressed_pairINS_12basic_stringIjNS_11char_traitsIjEENS_9allocatorIjEEE5__repES5_E6secondB7v160006Ev, symObjAddr: 0x7FC, symBinAddr: 0x100003544, symSize: 0x24 }
  - { offsetInCU: 0x132FA, offset: 0x132FA, size: 0x8, addend: 0x0, symName: __ZNSt3__122__compressed_pair_elemINS_9allocatorIjEELi1ELb1EE5__getB7v160006Ev, symObjAddr: 0x820, symBinAddr: 0x100003568, symSize: 0x14 }
  - { offsetInCU: 0x13320, offset: 0x13320, size: 0x8, addend: 0x0, symName: __ZNSt3__117__compressed_pairINS_12basic_stringIjNS_11char_traitsIjEENS_9allocatorIjEEE5__repES5_E5firstB7v160006Ev, symObjAddr: 0x834, symBinAddr: 0x10000357C, symSize: 0x24 }
  - { offsetInCU: 0x13346, offset: 0x13346, size: 0x8, addend: 0x0, symName: __ZNSt3__122__compressed_pair_elemINS_12basic_stringIjNS_11char_traitsIjEENS_9allocatorIjEEE5__repELi0ELb0EE5__getB7v160006Ev, symObjAddr: 0x858, symBinAddr: 0x1000035A0, symSize: 0x14 }
  - { offsetInCU: 0x1336C, offset: 0x1336C, size: 0x8, addend: 0x0, symName: __ZN6PlayerD2Ev, symObjAddr: 0x86C, symBinAddr: 0x1000035B4, symSize: 0x30 }
  - { offsetInCU: 0x13398, offset: 0x13398, size: 0x8, addend: 0x0, symName: __ZNSt3__16vectorIN2sf7Vector2IiEENS_9allocatorIS3_EEED1B7v160006Ev, symObjAddr: 0x89C, symBinAddr: 0x1000035E4, symSize: 0x2C }
  - { offsetInCU: 0x133C2, offset: 0x133C2, size: 0x8, addend: 0x0, symName: __ZNSt3__16vectorIN2sf7Vector2IiEENS_9allocatorIS3_EEED2B7v160006Ev, symObjAddr: 0x8C8, symBinAddr: 0x100003610, symSize: 0x44 }
  - { offsetInCU: 0x133EC, offset: 0x133EC, size: 0x8, addend: 0x0, symName: __ZNSt3__16vectorIN2sf7Vector2IiEENS_9allocatorIS3_EEE16__destroy_vectorC1ERS6_, symObjAddr: 0x90C, symBinAddr: 0x100003654, symSize: 0x34 }
  - { offsetInCU: 0x13425, offset: 0x13425, size: 0x8, addend: 0x0, symName: __ZNSt3__16vectorIN2sf7Vector2IiEENS_9allocatorIS3_EEE16__destroy_vectorclB7v160006Ev, symObjAddr: 0x940, symBinAddr: 0x100003688, symSize: 0x9C }
  - { offsetInCU: 0x1344B, offset: 0x1344B, size: 0x8, addend: 0x0, symName: __ZNSt3__16vectorIN2sf7Vector2IiEENS_9allocatorIS3_EEE16__destroy_vectorC2ERS6_, symObjAddr: 0x9DC, symBinAddr: 0x100003724, symSize: 0x20 }
  - { offsetInCU: 0x13484, offset: 0x13484, size: 0x8, addend: 0x0, symName: __ZNKSt3__16vectorIN2sf7Vector2IiEENS_9allocatorIS3_EEE17__annotate_deleteB7v160006Ev, symObjAddr: 0x9FC, symBinAddr: 0x100003744, symSize: 0xB8 }
  - { offsetInCU: 0x134AA, offset: 0x134AA, size: 0x8, addend: 0x0, symName: __ZNSt3__16vectorIN2sf7Vector2IiEENS_9allocatorIS3_EEE7__clearB7v160006Ev, symObjAddr: 0xAC4, symBinAddr: 0x10000380C, symSize: 0x28 }
  - { offsetInCU: 0x134D0, offset: 0x134D0, size: 0x8, addend: 0x0, symName: __ZNSt3__116allocator_traitsINS_9allocatorIN2sf7Vector2IiEEEEE10deallocateB7v160006ERS5_PS4_m, symObjAddr: 0xAEC, symBinAddr: 0x100003834, symSize: 0x34 }
  - { offsetInCU: 0x13512, offset: 0x13512, size: 0x8, addend: 0x0, symName: __ZNSt3__16vectorIN2sf7Vector2IiEENS_9allocatorIS3_EEE7__allocB7v160006Ev, symObjAddr: 0xB20, symBinAddr: 0x100003868, symSize: 0x28 }
  - { offsetInCU: 0x13538, offset: 0x13538, size: 0x8, addend: 0x0, symName: __ZNKSt3__16vectorIN2sf7Vector2IiEENS_9allocatorIS3_EEE8capacityB7v160006Ev, symObjAddr: 0xB48, symBinAddr: 0x100003890, symSize: 0x40 }
  - { offsetInCU: 0x1355E, offset: 0x1355E, size: 0x8, addend: 0x0, symName: __ZNKSt3__16vectorIN2sf7Vector2IiEENS_9allocatorIS3_EEE31__annotate_contiguous_containerB7v160006EPKvS8_S8_S8_, symObjAddr: 0xB88, symBinAddr: 0x1000038D0, symSize: 0x20 }
  - { offsetInCU: 0x135B4, offset: 0x135B4, size: 0x8, addend: 0x0, symName: __ZNKSt3__16vectorIN2sf7Vector2IiEENS_9allocatorIS3_EEE4dataB7v160006Ev, symObjAddr: 0xBA8, symBinAddr: 0x1000038F0, symSize: 0x28 }
  - { offsetInCU: 0x135DA, offset: 0x135DA, size: 0x8, addend: 0x0, symName: __ZNKSt3__16vectorIN2sf7Vector2IiEENS_9allocatorIS3_EEE4sizeB7v160006Ev, symObjAddr: 0xBD0, symBinAddr: 0x100003918, symSize: 0x28 }
  - { offsetInCU: 0x13600, offset: 0x13600, size: 0x8, addend: 0x0, symName: __ZNSt3__16vectorIN2sf7Vector2IiEENS_9allocatorIS3_EEE22__base_destruct_at_endB7v160006EPS3_, symObjAddr: 0xC0C, symBinAddr: 0x100003954, symSize: 0x8C }
  - { offsetInCU: 0x13644, offset: 0x13644, size: 0x8, addend: 0x0, symName: __ZNSt3__116allocator_traitsINS_9allocatorIN2sf7Vector2IiEEEEE7destroyB7v160006IS4_vEEvRS5_PT_, symObjAddr: 0xC98, symBinAddr: 0x1000039E0, symSize: 0x2C }
  - { offsetInCU: 0x13681, offset: 0x13681, size: 0x8, addend: 0x0, symName: __ZNSt3__19allocatorIN2sf7Vector2IiEEE7destroyB7v160006EPS3_, symObjAddr: 0xCC4, symBinAddr: 0x100003A0C, symSize: 0x14 }
  - { offsetInCU: 0x136B5, offset: 0x136B5, size: 0x8, addend: 0x0, symName: __ZNSt3__19allocatorIN2sf7Vector2IiEEE10deallocateB7v160006EPS3_m, symObjAddr: 0xCD8, symBinAddr: 0x100003A20, symSize: 0x40 }
  - { offsetInCU: 0x136F7, offset: 0x136F7, size: 0x8, addend: 0x0, symName: __ZNSt3__117__compressed_pairIPN2sf7Vector2IiEENS_9allocatorIS3_EEE6secondB7v160006Ev, symObjAddr: 0xD18, symBinAddr: 0x100003A60, symSize: 0x24 }
  - { offsetInCU: 0x1371D, offset: 0x1371D, size: 0x8, addend: 0x0, symName: __ZNSt3__122__compressed_pair_elemINS_9allocatorIN2sf7Vector2IiEEEELi1ELb1EE5__getB7v160006Ev, symObjAddr: 0xD3C, symBinAddr: 0x100003A84, symSize: 0x14 }
  - { offsetInCU: 0x13743, offset: 0x13743, size: 0x8, addend: 0x0, symName: __ZNKSt3__16vectorIN2sf7Vector2IiEENS_9allocatorIS3_EEE9__end_capB7v160006Ev, symObjAddr: 0xD50, symBinAddr: 0x100003A98, symSize: 0x28 }
  - { offsetInCU: 0x13769, offset: 0x13769, size: 0x8, addend: 0x0, symName: __ZNKSt3__117__compressed_pairIPN2sf7Vector2IiEENS_9allocatorIS3_EEE5firstB7v160006Ev, symObjAddr: 0xD78, symBinAddr: 0x100003AC0, symSize: 0x24 }
  - { offsetInCU: 0x1378F, offset: 0x1378F, size: 0x8, addend: 0x0, symName: __ZNKSt3__122__compressed_pair_elemIPN2sf7Vector2IiEELi0ELb0EE5__getB7v160006Ev, symObjAddr: 0xD9C, symBinAddr: 0x100003AE4, symSize: 0x14 }
  - { offsetInCU: 0x26, offset: 0x1382A, size: 0x8, addend: 0x0, symName: _main, symObjAddr: 0x0, symBinAddr: 0x100003AF8, symSize: 0x24 }
  - { offsetInCU: 0x2904, offset: 0x16108, size: 0x8, addend: 0x0, symName: _main, symObjAddr: 0x0, symBinAddr: 0x100003AF8, symSize: 0x24 }
  - { offsetInCU: 0x3F84, offset: 0x1A0B6, size: 0x8, addend: 0x0, symName: __ZNSt3__17advanceB7v160006IPKN2sf7Vector2IiEEmmvEEvRT_T0_, symObjAddr: 0x134C, symBinAddr: 0x100004820, symSize: 0x50 }
  - { offsetInCU: 0x5124, offset: 0x1B256, size: 0x8, addend: 0x0, symName: __ZNSt3__1neB7v160006IPN2sf7Vector2IiEEEEbRKNS_11__wrap_iterIT_EES9_, symObjAddr: 0x3D8, symBinAddr: 0x100003EC8, symSize: 0x34 }
  - { offsetInCU: 0x5F5A, offset: 0x1C08C, size: 0x8, addend: 0x0, symName: __ZNSt3__1eqB7v160006IPN2sf7Vector2IiEEEEbRKNS_11__wrap_iterIT_EES9_, symObjAddr: 0x8D0, symBinAddr: 0x1000043C0, symSize: 0x48 }
  - { offsetInCU: 0x5F9E, offset: 0x1C0D0, size: 0x8, addend: 0x0, symName: __ZNSt3__119__debug_db_insert_cB7v160006INS_6vectorIN2sf7Vector2IiEENS_9allocatorIS4_EEEEEEvPT_, symObjAddr: 0xA58, symBinAddr: 0x10000453C, symSize: 0x10 }
  - { offsetInCU: 0x5FCF, offset: 0x1C101, size: 0x8, addend: 0x0, symName: __ZNSt3__18distanceB7v160006IPKN2sf7Vector2IiEEEENS_15iterator_traitsIT_E15difference_typeES7_S7_, symObjAddr: 0x1320, symBinAddr: 0x1000047F4, symSize: 0x2C }
  - { offsetInCU: 0x6013, offset: 0x1C145, size: 0x8, addend: 0x0, symName: __ZNSt3__14copyB7v160006IPKN2sf7Vector2IiEEPS3_EET0_T_S8_S7_, symObjAddr: 0x139C, symBinAddr: 0x100004870, symSize: 0x40 }
  - { offsetInCU: 0x606E, offset: 0x1C1A0, size: 0x8, addend: 0x0, symName: __ZNSt3__125__debug_db_invalidate_allB7v160006INS_6vectorIN2sf7Vector2IiEENS_9allocatorIS4_EEEEEEvPT_, symObjAddr: 0x16B4, symBinAddr: 0x100004B88, symSize: 0x10 }
  - { offsetInCU: 0x609F, offset: 0x1C1D1, size: 0x8, addend: 0x0, symName: __ZNSt3__110__distanceB7v160006IPKN2sf7Vector2IiEEEENS_15iterator_traitsIT_E15difference_typeES7_S7_NS_26random_access_iterator_tagE, symObjAddr: 0x16C4, symBinAddr: 0x100004B98, symSize: 0x28 }
  - { offsetInCU: 0x60ED, offset: 0x1C21F, size: 0x8, addend: 0x0, symName: __ZNSt3__121__convert_to_integralB7v160006Em, symObjAddr: 0x16EC, symBinAddr: 0x100004BC0, symSize: 0x14 }
  - { offsetInCU: 0x6119, offset: 0x1C24B, size: 0x8, addend: 0x0, symName: __ZNSt3__19__advanceB7v160006IPKN2sf7Vector2IiEEEEvRT_NS_15iterator_traitsIS6_E15difference_typeENS_26random_access_iterator_tagE, symObjAddr: 0x1700, symBinAddr: 0x100004BD4, symSize: 0x28 }
  - { offsetInCU: 0x6163, offset: 0x1C295, size: 0x8, addend: 0x0, symName: __ZNSt3__16__copyB7v160006INS_17_ClassicAlgPolicyEPKN2sf7Vector2IiEES6_PS4_EENS_4pairIT0_T2_EES9_T1_SA_, symObjAddr: 0x1728, symBinAddr: 0x100004BFC, symSize: 0x44 }
  - { offsetInCU: 0x61D0, offset: 0x1C302, size: 0x8, addend: 0x0, symName: __ZNSt3__123__dispatch_copy_or_moveB7v160006INS_17_ClassicAlgPolicyENS_11__copy_loopIS1_EENS_14__copy_trivialEPKN2sf7Vector2IiEES9_PS7_EENS_4pairIT2_T4_EESC_T3_SD_, symObjAddr: 0x176C, symBinAddr: 0x100004C40, symSize: 0x44 }
  - { offsetInCU: 0x624F, offset: 0x1C381, size: 0x8, addend: 0x0, symName: __ZNSt3__121__unwrap_and_dispatchB7v160006INS_10__overloadINS_11__copy_loopINS_17_ClassicAlgPolicyEEENS_14__copy_trivialEEEPKN2sf7Vector2IiEESB_PS9_Li0EEENS_4pairIT0_T2_EESE_T1_SF_, symObjAddr: 0x17B0, symBinAddr: 0x100004C84, symSize: 0xB4 }
  - { offsetInCU: 0x62E1, offset: 0x1C413, size: 0x8, addend: 0x0, symName: __ZNSt3__114__unwrap_rangeB7v160006IPKN2sf7Vector2IiEES5_EENS_4pairIT0_S7_EET_S9_, symObjAddr: 0x1864, symBinAddr: 0x100004D38, symSize: 0x60 }
  - { offsetInCU: 0x647A, offset: 0x1C5AC, size: 0x8, addend: 0x0, symName: __ZNSt3__113__unwrap_iterB7v160006IPN2sf7Vector2IiEENS_18__unwrap_iter_implIS4_Lb1EEELi0EEEDTclsrT0_8__unwrapclsr3stdE7declvalIT_EEEES8_, symObjAddr: 0x190C, symBinAddr: 0x100004DE0, symSize: 0x24 }
  - { offsetInCU: 0x64C0, offset: 0x1C5F2, size: 0x8, addend: 0x0, symName: __ZNSt3__19make_pairB7v160006IPKN2sf7Vector2IiEEPS3_EENS_4pairINS_18__unwrap_ref_decayIT_E4typeENS8_IT0_E4typeEEEOS9_OSC_, symObjAddr: 0x1930, symBinAddr: 0x100004E04, symSize: 0x38 }
  - { offsetInCU: 0x6510, offset: 0x1C642, size: 0x8, addend: 0x0, symName: __ZNSt3__114__rewrap_rangeB7v160006IPKN2sf7Vector2IiEES5_EET_S6_T0_, symObjAddr: 0x1968, symBinAddr: 0x100004E3C, symSize: 0x2C }
  - { offsetInCU: 0x655D, offset: 0x1C68F, size: 0x8, addend: 0x0, symName: __ZNSt3__113__rewrap_iterB7v160006IPN2sf7Vector2IiEES4_NS_18__unwrap_iter_implIS4_Lb1EEEEET_S7_T0_, symObjAddr: 0x1994, symBinAddr: 0x100004E68, symSize: 0x3C }
  - { offsetInCU: 0x65B3, offset: 0x1C6E5, size: 0x8, addend: 0x0, symName: __ZNSt3__19make_pairB7v160006IPKN2sf7Vector2IiEES5_EENS_4pairINS_18__unwrap_ref_decayIT_E4typeENS7_IT0_E4typeEEEOS8_OSB_, symObjAddr: 0x19D0, symBinAddr: 0x100004EA4, symSize: 0x38 }
  - { offsetInCU: 0x6603, offset: 0x1C735, size: 0x8, addend: 0x0, symName: __ZNSt3__113__unwrap_iterB7v160006IPKN2sf7Vector2IiEENS_18__unwrap_iter_implIS5_Lb1EEELi0EEEDTclsrT0_8__unwrapclsr3stdE7declvalIT_EEEES9_, symObjAddr: 0x1A08, symBinAddr: 0x100004EDC, symSize: 0x24 }
  - { offsetInCU: 0x6771, offset: 0x1C8A3, size: 0x8, addend: 0x0, symName: __ZNSt3__112__to_addressB7v160006IKN2sf7Vector2IiEEEEPT_S6_, symObjAddr: 0x1AC0, symBinAddr: 0x100004F94, symSize: 0x14 }
  - { offsetInCU: 0x67A6, offset: 0x1C8D8, size: 0x8, addend: 0x0, symName: __ZNSt3__119__copy_trivial_implB7v160006IKN2sf7Vector2IiEES3_EENS_4pairIPT_PT0_EES7_S7_S9_, symObjAddr: 0x1AD4, symBinAddr: 0x100004FA8, symSize: 0x84 }
  - { offsetInCU: 0x6810, offset: 0x1C942, size: 0x8, addend: 0x0, symName: __ZNSt3__19make_pairB7v160006IRPKN2sf7Vector2IiEEPS3_EENS_4pairINS_18__unwrap_ref_decayIT_E4typeENS9_IT0_E4typeEEEOSA_OSD_, symObjAddr: 0x1B58, symBinAddr: 0x10000502C, symSize: 0x38 }
  - { offsetInCU: 0x68B3, offset: 0x1C9E5, size: 0x8, addend: 0x0, symName: __ZNSt3__113__rewrap_iterB7v160006IPKN2sf7Vector2IiEES5_NS_18__unwrap_iter_implIS5_Lb1EEEEET_S8_T0_, symObjAddr: 0x1C94, symBinAddr: 0x100005168, symSize: 0x3C }
  - { offsetInCU: 0x6909, offset: 0x1CA3B, size: 0x8, addend: 0x0, symName: __ZNSt3__130__uninitialized_allocator_copyB7v160006INS_9allocatorIN2sf7Vector2IiEEEES4_S4_LPv0EEEPT0_RT_PKS7_SC_S8_, symObjAddr: 0x1DAC, symBinAddr: 0x100005280, symSize: 0x38 }
  - { offsetInCU: 0x6984, offset: 0x1CAB6, size: 0x8, addend: 0x0, symName: __ZNSt3__119__allocate_at_leastB7v160006INS_9allocatorIN2sf7Vector2IiEEEEEENS_19__allocation_resultINS_16allocator_traitsIT_E7pointerEEERS8_m, symObjAddr: 0x206C, symBinAddr: 0x100005540, symSize: 0x40 }
  - { offsetInCU: 0x69C8, offset: 0x1CAFA, size: 0x8, addend: 0x0, symName: __ZNSt3__13minB7v160006ImEERKT_S3_S3_, symObjAddr: 0x2158, symBinAddr: 0x10000562C, symSize: 0x2C }
  - { offsetInCU: 0x6BF6, offset: 0x1CD28, size: 0x8, addend: 0x0, symName: __ZNSt3__13minB7v160006ImNS_6__lessImmEEEERKT_S5_S5_T0_, symObjAddr: 0x21E4, symBinAddr: 0x1000056B8, symSize: 0x54 }
  - { offsetInCU: 0x6C8C, offset: 0x1CDBE, size: 0x8, addend: 0x0, symName: __ZNSt3__120__throw_length_errorB7v160006EPKc, symObjAddr: 0x22C0, symBinAddr: 0x100005794, symSize: 0x64 }
  - { offsetInCU: 0x6CB5, offset: 0x1CDE7, size: 0x8, addend: 0x0, symName: __ZNSt3__117__libcpp_allocateB7v160006Emm, symObjAddr: 0x2430, symBinAddr: 0x100005904, symSize: 0x60 }
  - { offsetInCU: 0x6D10, offset: 0x1CE42, size: 0x8, addend: 0x0, symName: __ZNSt3__121__libcpp_operator_newB7v160006IJmSt11align_val_tEEEPvDpT_, symObjAddr: 0x2490, symBinAddr: 0x100005964, symSize: 0x2C }
  - { offsetInCU: 0x6D5E, offset: 0x1CE90, size: 0x8, addend: 0x0, symName: __ZNSt3__121__libcpp_operator_newB7v160006IJmEEEPvDpT_, symObjAddr: 0x24BC, symBinAddr: 0x100005990, symSize: 0x24 }
  - { offsetInCU: 0x6D98, offset: 0x1CECA, size: 0x8, addend: 0x0, symName: __ZNSt3__13maxB7v160006ImEERKT_S3_S3_, symObjAddr: 0x24E0, symBinAddr: 0x1000059B4, symSize: 0x2C }
  - { offsetInCU: 0x6DDC, offset: 0x1CF0E, size: 0x8, addend: 0x0, symName: __ZNSt3__13maxB7v160006ImNS_6__lessImmEEEERKT_S5_S5_T0_, symObjAddr: 0x250C, symBinAddr: 0x1000059E0, symSize: 0x54 }
  - { offsetInCU: 0x6E37, offset: 0x1CF69, size: 0x8, addend: 0x0, symName: __ZNSt3__1miB7v160006IPKN2sf7Vector2IiEEPS3_EEDTmicldtfp_4baseEcldtfp0_4baseEERKNS_11__wrap_iterIT_EERKNS8_IT0_EE, symObjAddr: 0x2620, symBinAddr: 0x100005AF4, symSize: 0x48 }
  - { offsetInCU: 0x6EB7, offset: 0x1CFE9, size: 0x8, addend: 0x0, symName: __ZNSt3__113move_backwardB7v160006IPN2sf7Vector2IiEES4_EET0_T_S6_S5_, symObjAddr: 0x2D04, symBinAddr: 0x1000061D8, symSize: 0x40 }
  - { offsetInCU: 0x6F12, offset: 0x1D044, size: 0x8, addend: 0x0, symName: __ZNSt3__115__move_backwardB7v160006INS_17_ClassicAlgPolicyEPN2sf7Vector2IiEES5_S5_EENS_4pairIT0_T2_EES7_T1_S8_, symObjAddr: 0x2D6C, symBinAddr: 0x100006240, symSize: 0x44 }
  - { offsetInCU: 0x6F7F, offset: 0x1D0B1, size: 0x8, addend: 0x0, symName: __ZNSt3__123__dispatch_copy_or_moveB7v160006INS_17_ClassicAlgPolicyENS_20__move_backward_loopIS1_EENS_23__move_backward_trivialEPN2sf7Vector2IiEES8_S8_EENS_4pairIT2_T4_EESA_T3_SB_, symObjAddr: 0x2DB0, symBinAddr: 0x100006284, symSize: 0x44 }
  - { offsetInCU: 0x6FFE, offset: 0x1D130, size: 0x8, addend: 0x0, symName: __ZNSt3__121__unwrap_and_dispatchB7v160006INS_10__overloadINS_20__move_backward_loopINS_17_ClassicAlgPolicyEEENS_23__move_backward_trivialEEEPN2sf7Vector2IiEESA_SA_Li0EEENS_4pairIT0_T2_EESC_T1_SD_, symObjAddr: 0x2DF4, symBinAddr: 0x1000062C8, symSize: 0xB4 }
  - { offsetInCU: 0x7090, offset: 0x1D1C2, size: 0x8, addend: 0x0, symName: __ZNSt3__114__unwrap_rangeB7v160006IPN2sf7Vector2IiEES4_EENS_4pairIT0_S6_EET_S8_, symObjAddr: 0x2EA8, symBinAddr: 0x10000637C, symSize: 0x60 }
  - { offsetInCU: 0x7259, offset: 0x1D38B, size: 0x8, addend: 0x0, symName: __ZNSt3__19make_pairB7v160006IPN2sf7Vector2IiEES4_EENS_4pairINS_18__unwrap_ref_decayIT_E4typeENS6_IT0_E4typeEEEOS7_OSA_, symObjAddr: 0x2F50, symBinAddr: 0x100006424, symSize: 0x38 }
  - { offsetInCU: 0x72A9, offset: 0x1D3DB, size: 0x8, addend: 0x0, symName: __ZNSt3__114__rewrap_rangeB7v160006IPN2sf7Vector2IiEES4_EET_S5_T0_, symObjAddr: 0x2F88, symBinAddr: 0x10000645C, symSize: 0x2C }
  - { offsetInCU: 0x72F6, offset: 0x1D428, size: 0x8, addend: 0x0, symName: __ZNSt3__128__copy_backward_trivial_implB7v160006IN2sf7Vector2IiEES3_EENS_4pairIPT_PT0_EES6_S6_S8_, symObjAddr: 0x2FB4, symBinAddr: 0x100006488, symSize: 0x94 }
  - { offsetInCU: 0x7360, offset: 0x1D492, size: 0x8, addend: 0x0, symName: __ZNSt3__19make_pairB7v160006IRPN2sf7Vector2IiEES5_EENS_4pairINS_18__unwrap_ref_decayIT_E4typeENS7_IT0_E4typeEEEOS8_OSB_, symObjAddr: 0x3048, symBinAddr: 0x10000651C, symSize: 0x38 }
  - { offsetInCU: 0x73B0, offset: 0x1D4E2, size: 0x8, addend: 0x0, symName: __ZNSt3__14moveB7v160006IPN2sf7Vector2IiEES4_EET0_T_S6_S5_, symObjAddr: 0x338C, symBinAddr: 0x100006860, symSize: 0x40 }
  - { offsetInCU: 0x740B, offset: 0x1D53D, size: 0x8, addend: 0x0, symName: __ZNSt3__14swapB7v160006IPN2sf7Vector2IiEEEENS_9enable_ifIXaasr21is_move_constructibleIT_EE5valuesr18is_move_assignableIS6_EE5valueEvE4typeERS6_S9_, symObjAddr: 0x34FC, symBinAddr: 0x1000069D0, symSize: 0x3C }
  - { offsetInCU: 0x745D, offset: 0x1D58F, size: 0x8, addend: 0x0, symName: __ZNSt3__16__moveB7v160006INS_17_ClassicAlgPolicyEPN2sf7Vector2IiEES5_S5_EENS_4pairIT0_T2_EES7_T1_S8_, symObjAddr: 0x3538, symBinAddr: 0x100006A0C, symSize: 0x44 }
  - { offsetInCU: 0x74CA, offset: 0x1D5FC, size: 0x8, addend: 0x0, symName: __ZNSt3__123__dispatch_copy_or_moveB7v160006INS_17_ClassicAlgPolicyENS_11__move_loopIS1_EENS_14__move_trivialEPN2sf7Vector2IiEES8_S8_EENS_4pairIT2_T4_EESA_T3_SB_, symObjAddr: 0x357C, symBinAddr: 0x100006A50, symSize: 0x44 }
  - { offsetInCU: 0x7549, offset: 0x1D67B, size: 0x8, addend: 0x0, symName: __ZNSt3__121__unwrap_and_dispatchB7v160006INS_10__overloadINS_11__move_loopINS_17_ClassicAlgPolicyEEENS_14__move_trivialEEEPN2sf7Vector2IiEESA_SA_Li0EEENS_4pairIT0_T2_EESC_T1_SD_, symObjAddr: 0x35C0, symBinAddr: 0x100006A94, symSize: 0xB4 }
  - { offsetInCU: 0x7622, offset: 0x1D754, size: 0x8, addend: 0x0, symName: __ZNSt3__119__copy_trivial_implB7v160006IN2sf7Vector2IiEES3_EENS_4pairIPT_PT0_EES6_S6_S8_, symObjAddr: 0x36BC, symBinAddr: 0x100006B90, symSize: 0x84 }
  - { offsetInCU: 0x768C, offset: 0x1D7BE, size: 0x8, addend: 0x0, symName: __ZNSt3__19make_pairB7v160006IRPN2sf7Vector2IiEES4_EENS_4pairINS_18__unwrap_ref_decayIT_E4typeENS7_IT0_E4typeEEEOS8_OSB_, symObjAddr: 0x3740, symBinAddr: 0x100006C14, symSize: 0x38 }
  - { offsetInCU: 0x76DC, offset: 0x1D80E, size: 0x8, addend: 0x0, symName: __ZNSt3__18distanceB7v160006INS_13move_iteratorIPN2sf7Vector2IiEEEEEENS_15iterator_traitsIT_E15difference_typeES8_S8_, symObjAddr: 0x37E8, symBinAddr: 0x100006CBC, symSize: 0x3C }
  - { offsetInCU: 0x7720, offset: 0x1D852, size: 0x8, addend: 0x0, symName: __ZNSt3__110__distanceB7v160006INS_13move_iteratorIPN2sf7Vector2IiEEEEEENS_15iterator_traitsIT_E15difference_typeES8_S8_NS_26random_access_iterator_tagE, symObjAddr: 0x38C4, symBinAddr: 0x100006D98, symSize: 0x30 }
  - { offsetInCU: 0x776F, offset: 0x1D8A1, size: 0x8, addend: 0x0, symName: __ZNSt3__1miB7v160006IPN2sf7Vector2IiEES4_EEDTmicldtfp_4baseEcldtfp0_4baseEERKNS_13move_iteratorIT_EERKNS6_IT0_EE, symObjAddr: 0x38F4, symBinAddr: 0x100006DC8, symSize: 0x48 }
  - { offsetInCU: 0x77BF, offset: 0x1D8F1, size: 0x8, addend: 0x0, symName: __ZNSt3__142__uninitialized_allocator_move_if_noexceptB7v160006INS_9allocatorIN2sf7Vector2IiEEEENS_16reverse_iteratorIPS4_EES8_S4_vEET1_RT_T0_SC_S9_, symObjAddr: 0x39D8, symBinAddr: 0x100006EAC, symSize: 0x78 }
  - { offsetInCU: 0x783E, offset: 0x1D970, size: 0x8, addend: 0x0, symName: __ZNSt3__142__uninitialized_allocator_move_if_noexceptB7v160006INS_9allocatorIN2sf7Vector2IiEEEEPS4_S6_S4_vEET1_RT_T0_SA_S7_, symObjAddr: 0x3A9C, symBinAddr: 0x100006F70, symSize: 0x38 }
  - { offsetInCU: 0x78BC, offset: 0x1D9EE, size: 0x8, addend: 0x0, symName: __ZNSt3__14moveB7v160006INS_16reverse_iteratorIPN2sf7Vector2IiEEEES6_EET0_T_S8_S7_, symObjAddr: 0x3AD4, symBinAddr: 0x100006FA8, symSize: 0x78 }
  - { offsetInCU: 0x7917, offset: 0x1DA49, size: 0x8, addend: 0x0, symName: __ZNSt3__16__moveB7v160006INS_17_ClassicAlgPolicyENS_16reverse_iteratorIPN2sf7Vector2IiEEEES7_S7_EENS_4pairIT0_T2_EES9_T1_SA_, symObjAddr: 0x3B4C, symBinAddr: 0x100007020, symSize: 0x64 }
  - { offsetInCU: 0x7984, offset: 0x1DAB6, size: 0x8, addend: 0x0, symName: __ZNSt3__123__dispatch_copy_or_moveB7v160006INS_17_ClassicAlgPolicyENS_11__move_loopIS1_EENS_14__move_trivialENS_16reverse_iteratorIPN2sf7Vector2IiEEEESA_SA_EENS_4pairIT2_T4_EESC_T3_SD_, symObjAddr: 0x3BB0, symBinAddr: 0x100007084, symSize: 0x64 }
  - { offsetInCU: 0x7A03, offset: 0x1DB35, size: 0x8, addend: 0x0, symName: __ZNSt3__121__unwrap_and_dispatchB7v160006INS_10__overloadINS_11__move_loopINS_17_ClassicAlgPolicyEEENS_14__move_trivialEEENS_16reverse_iteratorIPN2sf7Vector2IiEEEESC_SC_Li0EEENS_4pairIT0_T2_EESE_T1_SF_, symObjAddr: 0x3C14, symBinAddr: 0x1000070E8, symSize: 0x12C }
  - { offsetInCU: 0x7A97, offset: 0x1DBC9, size: 0x8, addend: 0x0, symName: __ZNSt3__114__unwrap_rangeB7v160006INS_16reverse_iteratorIPN2sf7Vector2IiEEEES6_EENS_4pairIT0_S8_EET_SA_, symObjAddr: 0x3D40, symBinAddr: 0x100007214, symSize: 0x84 }
  - { offsetInCU: 0x7C14, offset: 0x1DD46, size: 0x8, addend: 0x0, symName: __ZNSt3__113__unwrap_iterB7v160006INS_16reverse_iteratorIPN2sf7Vector2IiEEEENS_18__unwrap_iter_implIS6_Lb0EEELi0EEEDTclsrT0_8__unwrapclsr3stdE7declvalIT_EEEESA_, symObjAddr: 0x3E64, symBinAddr: 0x100007338, symSize: 0x44 }
  - { offsetInCU: 0x7C5A, offset: 0x1DD8C, size: 0x8, addend: 0x0, symName: __ZNSt3__19make_pairB7v160006INS_16reverse_iteratorIPN2sf7Vector2IiEEEES6_EENS_4pairINS_18__unwrap_ref_decayIT_E4typeENS8_IT0_E4typeEEEOS9_OSC_, symObjAddr: 0x3EA8, symBinAddr: 0x10000737C, symSize: 0x38 }
  - { offsetInCU: 0x7CAA, offset: 0x1DDDC, size: 0x8, addend: 0x0, symName: __ZNSt3__114__rewrap_rangeB7v160006INS_16reverse_iteratorIPN2sf7Vector2IiEEEES6_EET_S7_T0_, symObjAddr: 0x3EE0, symBinAddr: 0x1000073B4, symSize: 0x5C }
  - { offsetInCU: 0x7CF7, offset: 0x1DE29, size: 0x8, addend: 0x0, symName: __ZNSt3__113__rewrap_iterB7v160006INS_16reverse_iteratorIPN2sf7Vector2IiEEEES6_NS_18__unwrap_iter_implIS6_Lb0EEEEET_S9_T0_, symObjAddr: 0x3F3C, symBinAddr: 0x100007410, symSize: 0x74 }
  - { offsetInCU: 0x7D4D, offset: 0x1DE7F, size: 0x8, addend: 0x0, symName: __ZNSt3__1neB7v160006IPN2sf7Vector2IiEES4_EEbRKNS_16reverse_iteratorIT_EERKNS5_IT0_EE, symObjAddr: 0x3FB0, symBinAddr: 0x100007484, symSize: 0x48 }
  - { offsetInCU: 0x815A, offset: 0x1E28C, size: 0x8, addend: 0x0, symName: __ZSt28__throw_bad_array_new_lengthB7v160006v, symObjAddr: 0x23FC, symBinAddr: 0x1000058D0, symSize: 0x34 }
  - { offsetInCU: 0x8587, offset: 0x1E6B9, size: 0x8, addend: 0x0, symName: __ZNSt3__16vectorIN2sf7Vector2IiEENS_9allocatorIS3_EEE26__swap_out_circular_bufferERNS_14__split_bufferIS3_RS5_EEPS3_, symObjAddr: 0x2ADC, symBinAddr: 0x100005FB0, symSize: 0x154 }
  - { offsetInCU: 0xA34D, offset: 0x2047F, size: 0x8, addend: 0x0, symName: __ZN6PlayerC2ERN2sf12RenderWindowE, symObjAddr: 0x0, symBinAddr: 0x100003B1C, symSize: 0xE0 }
  - { offsetInCU: 0xA386, offset: 0x204B8, size: 0x8, addend: 0x0, symName: __ZNSt3__16vectorIN2sf7Vector2IiEENS_9allocatorIS3_EEEC1B7v160006Ev, symObjAddr: 0xE0, symBinAddr: 0x100003BFC, symSize: 0x2C }
  - { offsetInCU: 0xA3B0, offset: 0x204E2, size: 0x8, addend: 0x0, symName: __ZN2sf7Vector2IiEC1Eii, symObjAddr: 0x10C, symBinAddr: 0x100003C28, symSize: 0x3C }
  - { offsetInCU: 0xA3F8, offset: 0x2052A, size: 0x8, addend: 0x0, symName: __ZNSt3__16vectorIN2sf7Vector2IiEENS_9allocatorIS3_EEEaSB7v160006ESt16initializer_listIS3_E, symObjAddr: 0x148, symBinAddr: 0x100003C64, symSize: 0x60 }
  - { offsetInCU: 0xA42D, offset: 0x2055F, size: 0x8, addend: 0x0, symName: __ZN6PlayerC1ERN2sf12RenderWindowE, symObjAddr: 0x1D4, symBinAddr: 0x100003CC4, symSize: 0x34 }
  - { offsetInCU: 0xA466, offset: 0x20598, size: 0x8, addend: 0x0, symName: __ZN6Player8onRenderEv, symObjAddr: 0x208, symBinAddr: 0x100003CF8, symSize: 0x134 }
  - { offsetInCU: 0xA4F0, offset: 0x20622, size: 0x8, addend: 0x0, symName: __ZN2sf7Vector2IfEC1Eff, symObjAddr: 0x33C, symBinAddr: 0x100003E2C, symSize: 0x3C }
  - { offsetInCU: 0xA538, offset: 0x2066A, size: 0x8, addend: 0x0, symName: __ZNSt3__16vectorIN2sf7Vector2IiEENS_9allocatorIS3_EEE5beginB7v160006Ev, symObjAddr: 0x378, symBinAddr: 0x100003E68, symSize: 0x30 }
  - { offsetInCU: 0xA560, offset: 0x20692, size: 0x8, addend: 0x0, symName: __ZNSt3__16vectorIN2sf7Vector2IiEENS_9allocatorIS3_EEE3endB7v160006Ev, symObjAddr: 0x3A8, symBinAddr: 0x100003E98, symSize: 0x30 }
  - { offsetInCU: 0xA588, offset: 0x206BA, size: 0x8, addend: 0x0, symName: __ZNKSt3__111__wrap_iterIPN2sf7Vector2IiEEEdeB7v160006Ev, symObjAddr: 0x40C, symBinAddr: 0x100003EFC, symSize: 0x18 }
  - { offsetInCU: 0xA5AE, offset: 0x206E0, size: 0x8, addend: 0x0, symName: __ZNSt3__111__wrap_iterIPN2sf7Vector2IiEEEppB7v160006Ev, symObjAddr: 0x424, symBinAddr: 0x100003F14, symSize: 0x20 }
  - { offsetInCU: 0xA6FB, offset: 0x2082D, size: 0x8, addend: 0x0, symName: __ZN2sf14RectangleShapeD1Ev, symObjAddr: 0x444, symBinAddr: 0x100003F34, symSize: 0x2C }
  - { offsetInCU: 0xA727, offset: 0x20859, size: 0x8, addend: 0x0, symName: __ZN6Player6onTickEv, symObjAddr: 0x470, symBinAddr: 0x100003F60, symSize: 0x1D4 }
  - { offsetInCU: 0xA77B, offset: 0x208AD, size: 0x8, addend: 0x0, symName: __ZNSt3__16vectorIN2sf7Vector2IiEENS_9allocatorIS3_EEE5frontB7v160006Ev, symObjAddr: 0x654, symBinAddr: 0x100004144, symSize: 0x18 }
  - { offsetInCU: 0xA7A1, offset: 0x208D3, size: 0x8, addend: 0x0, symName: __ZNSt3__16vectorIN2sf7Vector2IiEENS_9allocatorIS3_EEE6insertENS_11__wrap_iterIPKS3_EERS8_, symObjAddr: 0x66C, symBinAddr: 0x10000415C, symSize: 0x1FC }
  - { offsetInCU: 0xA843, offset: 0x20975, size: 0x8, addend: 0x0, symName: __ZNSt3__111__wrap_iterIPKN2sf7Vector2IiEEEC1B7v160006IPS3_EERKNS0_IT_EEPNS_9enable_ifIXsr14is_convertibleIS9_S5_EE5valueEvE4typeE, symObjAddr: 0x868, symBinAddr: 0x100004358, symSize: 0x3C }
  - { offsetInCU: 0xA88F, offset: 0x209C1, size: 0x8, addend: 0x0, symName: __ZNSt3__16vectorIN2sf7Vector2IiEENS_9allocatorIS3_EEE8pop_backEv, symObjAddr: 0x8A4, symBinAddr: 0x100004394, symSize: 0x2C }
  - { offsetInCU: 0xA8B7, offset: 0x209E9, size: 0x8, addend: 0x0, symName: __ZNKSt3__111__wrap_iterIPN2sf7Vector2IiEEE4baseB7v160006Ev, symObjAddr: 0x918, symBinAddr: 0x100004408, symSize: 0x18 }
  - { offsetInCU: 0xA8DD, offset: 0x20A0F, size: 0x8, addend: 0x0, symName: __ZN2sf14RectangleShapeD2Ev, symObjAddr: 0x930, symBinAddr: 0x100004420, symSize: 0x2C }
  - { offsetInCU: 0xA909, offset: 0x20A3B, size: 0x8, addend: 0x0, symName: __ZThn8_N2sf14RectangleShapeD1Ev, symObjAddr: 0x95C, symBinAddr: 0x10000444C, symSize: 0x1C }
  - { offsetInCU: 0xA91F, offset: 0x20A51, size: 0x8, addend: 0x0, symName: __ZNSt3__111__wrap_iterIPKN2sf7Vector2IiEEEC2B7v160006IPS3_EERKNS0_IT_EEPNS_9enable_ifIXsr14is_convertibleIS9_S5_EE5valueEvE4typeE, symObjAddr: 0x978, symBinAddr: 0x100004468, symSize: 0x40 }
  - { offsetInCU: 0xA96B, offset: 0x20A9D, size: 0x8, addend: 0x0, symName: __ZNSt3__16vectorIN2sf7Vector2IiEENS_9allocatorIS3_EEEC2B7v160006Ev, symObjAddr: 0x9B8, symBinAddr: 0x1000044A8, symSize: 0x58 }
  - { offsetInCU: 0xA99F, offset: 0x20AD1, size: 0x8, addend: 0x0, symName: __ZNSt3__117__compressed_pairIPN2sf7Vector2IiEENS_9allocatorIS3_EEEC1B7v160006IDnNS_18__default_init_tagEEEOT_OT0_, symObjAddr: 0xA10, symBinAddr: 0x100004500, symSize: 0x3C }
  - { offsetInCU: 0xA9F7, offset: 0x20B29, size: 0x8, addend: 0x0, symName: __ZNSt3__117__compressed_pairIPN2sf7Vector2IiEENS_9allocatorIS3_EEEC2B7v160006IDnNS_18__default_init_tagEEEOT_OT0_, symObjAddr: 0xA68, symBinAddr: 0x10000454C, symSize: 0x40 }
  - { offsetInCU: 0xAA4F, offset: 0x20B81, size: 0x8, addend: 0x0, symName: __ZNSt3__122__compressed_pair_elemIPN2sf7Vector2IiEELi0ELb0EEC2B7v160006IDnvEEOT_, symObjAddr: 0xAA8, symBinAddr: 0x10000458C, symSize: 0x1C }
  - { offsetInCU: 0xAA91, offset: 0x20BC3, size: 0x8, addend: 0x0, symName: __ZNSt3__122__compressed_pair_elemINS_9allocatorIN2sf7Vector2IiEEEELi1ELb1EEC2B7v160006ENS_18__default_init_tagE, symObjAddr: 0xAC4, symBinAddr: 0x1000045A8, symSize: 0x2C }
  - { offsetInCU: 0xAAC6, offset: 0x20BF8, size: 0x8, addend: 0x0, symName: __ZNSt3__19allocatorIN2sf7Vector2IiEEEC2B7v160006Ev, symObjAddr: 0xAF0, symBinAddr: 0x1000045D4, symSize: 0x2C }
  - { offsetInCU: 0xAAF0, offset: 0x20C22, size: 0x8, addend: 0x0, symName: __ZNSt3__116__non_trivial_ifILb1ENS_9allocatorIN2sf7Vector2IiEEEEEC2B7v160006Ev, symObjAddr: 0xB1C, symBinAddr: 0x100004600, symSize: 0x14 }
  - { offsetInCU: 0xAB1A, offset: 0x20C4C, size: 0x8, addend: 0x0, symName: __ZN2sf7Vector2IiEC2Eii, symObjAddr: 0x1140, symBinAddr: 0x100004614, symSize: 0x2C }
  - { offsetInCU: 0xAB62, offset: 0x20C94, size: 0x8, addend: 0x0, symName: __ZNSt3__16vectorIN2sf7Vector2IiEENS_9allocatorIS3_EEE6assignIPKS3_Li0EEEvT_SA_, symObjAddr: 0x116C, symBinAddr: 0x100004640, symSize: 0x17C }
  - { offsetInCU: 0xAC02, offset: 0x20D34, size: 0x8, addend: 0x0, symName: __ZNKSt16initializer_listIN2sf7Vector2IiEEE5beginB7v160006Ev, symObjAddr: 0x12E8, symBinAddr: 0x1000047BC, symSize: 0x18 }
  - { offsetInCU: 0xAC28, offset: 0x20D5A, size: 0x8, addend: 0x0, symName: __ZNKSt16initializer_listIN2sf7Vector2IiEEE3endB7v160006Ev, symObjAddr: 0x1300, symBinAddr: 0x1000047D4, symSize: 0x20 }
  - { offsetInCU: 0xAC4E, offset: 0x20D80, size: 0x8, addend: 0x0, symName: __ZNSt3__16vectorIN2sf7Vector2IiEENS_9allocatorIS3_EEE18__construct_at_endIPKS3_Li0EEEvT_SA_m, symObjAddr: 0x13DC, symBinAddr: 0x1000048B0, symSize: 0x8C }
  - { offsetInCU: 0xACC2, offset: 0x20DF4, size: 0x8, addend: 0x0, symName: __ZNSt3__16vectorIN2sf7Vector2IiEENS_9allocatorIS3_EEE17__destruct_at_endB7v160006EPS3_, symObjAddr: 0x1468, symBinAddr: 0x10000493C, symSize: 0x60 }
  - { offsetInCU: 0xAD06, offset: 0x20E38, size: 0x8, addend: 0x0, symName: __ZNSt3__16vectorIN2sf7Vector2IiEENS_9allocatorIS3_EEE13__vdeallocateEv, symObjAddr: 0x14C8, symBinAddr: 0x10000499C, symSize: 0x8C }
  - { offsetInCU: 0xAD2E, offset: 0x20E60, size: 0x8, addend: 0x0, symName: __ZNSt3__16vectorIN2sf7Vector2IiEENS_9allocatorIS3_EEE11__vallocateB7v160006Em, symObjAddr: 0x1554, symBinAddr: 0x100004A28, symSize: 0xAC }
  - { offsetInCU: 0xAD72, offset: 0x20EA4, size: 0x8, addend: 0x0, symName: __ZNKSt3__16vectorIN2sf7Vector2IiEENS_9allocatorIS3_EEE11__recommendB7v160006Em, symObjAddr: 0x1600, symBinAddr: 0x100004AD4, symSize: 0xB4 }
  - { offsetInCU: 0xADEA, offset: 0x20F1C, size: 0x8, addend: 0x0, symName: __ZNKSt3__114__copy_trivialclB7v160006IKN2sf7Vector2IiEES4_Li0EEENS_4pairIPT_PT0_EES8_S8_SA_, symObjAddr: 0x18C4, symBinAddr: 0x100004D98, symSize: 0x48 }
  - { offsetInCU: 0xAE71, offset: 0x20FA3, size: 0x8, addend: 0x0, symName: __ZNSt3__14pairIPKN2sf7Vector2IiEES5_EC1B7v160006IS5_S5_LPv0EEEOT_OT0_, symObjAddr: 0x1A2C, symBinAddr: 0x100004F00, symSize: 0x3C }
  - { offsetInCU: 0xAED0, offset: 0x21002, size: 0x8, addend: 0x0, symName: __ZNSt3__14pairIPKN2sf7Vector2IiEES5_EC2B7v160006IS5_S5_LPv0EEEOT_OT0_, symObjAddr: 0x1A68, symBinAddr: 0x100004F3C, symSize: 0x34 }
  - { offsetInCU: 0xAF2F, offset: 0x21061, size: 0x8, addend: 0x0, symName: __ZNSt3__118__unwrap_iter_implIPKN2sf7Vector2IiEELb1EE8__unwrapB7v160006ES5_, symObjAddr: 0x1A9C, symBinAddr: 0x100004F70, symSize: 0x24 }
  - { offsetInCU: 0xAF5C, offset: 0x2108E, size: 0x8, addend: 0x0, symName: __ZNSt3__14pairIPKN2sf7Vector2IiEEPS3_EC1B7v160006IRS5_S6_LPv0EEEOT_OT0_, symObjAddr: 0x1B90, symBinAddr: 0x100005064, symSize: 0x3C }
  - { offsetInCU: 0xAFBB, offset: 0x210ED, size: 0x8, addend: 0x0, symName: __ZNSt3__14pairIPKN2sf7Vector2IiEEPS3_EC2B7v160006IRS5_S6_LPv0EEEOT_OT0_, symObjAddr: 0x1BCC, symBinAddr: 0x1000050A0, symSize: 0x34 }
  - { offsetInCU: 0xB01A, offset: 0x2114C, size: 0x8, addend: 0x0, symName: __ZNSt3__118__unwrap_iter_implIPN2sf7Vector2IiEELb1EE8__unwrapB7v160006ES4_, symObjAddr: 0x1C00, symBinAddr: 0x1000050D4, symSize: 0x24 }
  - { offsetInCU: 0xB03D, offset: 0x2116F, size: 0x8, addend: 0x0, symName: __ZNSt3__14pairIPKN2sf7Vector2IiEEPS3_EC1B7v160006IS5_S6_LPv0EEEOT_OT0_, symObjAddr: 0x1C24, symBinAddr: 0x1000050F8, symSize: 0x3C }
  - { offsetInCU: 0xB09C, offset: 0x211CE, size: 0x8, addend: 0x0, symName: __ZNSt3__14pairIPKN2sf7Vector2IiEEPS3_EC2B7v160006IS5_S6_LPv0EEEOT_OT0_, symObjAddr: 0x1C60, symBinAddr: 0x100005134, symSize: 0x34 }
  - { offsetInCU: 0xB0FB, offset: 0x2122D, size: 0x8, addend: 0x0, symName: __ZNSt3__118__unwrap_iter_implIPKN2sf7Vector2IiEELb1EE8__rewrapB7v160006ES5_S5_, symObjAddr: 0x1CD0, symBinAddr: 0x1000051A4, symSize: 0x50 }
  - { offsetInCU: 0xB12C, offset: 0x2125E, size: 0x8, addend: 0x0, symName: __ZNSt3__118__unwrap_iter_implIPN2sf7Vector2IiEELb1EE8__rewrapB7v160006ES4_S4_, symObjAddr: 0x1D20, symBinAddr: 0x1000051F4, symSize: 0x50 }
  - { offsetInCU: 0xB176, offset: 0x212A8, size: 0x8, addend: 0x0, symName: __ZNSt3__16vectorIN2sf7Vector2IiEENS_9allocatorIS3_EEE21_ConstructTransactionC1B7v160006ERS6_m, symObjAddr: 0x1D70, symBinAddr: 0x100005244, symSize: 0x3C }
  - { offsetInCU: 0xB1BE, offset: 0x212F0, size: 0x8, addend: 0x0, symName: __ZNSt3__16vectorIN2sf7Vector2IiEENS_9allocatorIS3_EEE21_ConstructTransactionD1B7v160006Ev, symObjAddr: 0x1DE4, symBinAddr: 0x1000052B8, symSize: 0x2C }
  - { offsetInCU: 0xB1E8, offset: 0x2131A, size: 0x8, addend: 0x0, symName: __ZNSt3__16vectorIN2sf7Vector2IiEENS_9allocatorIS3_EEE21_ConstructTransactionC2B7v160006ERS6_m, symObjAddr: 0x1E10, symBinAddr: 0x1000052E4, symSize: 0x44 }
  - { offsetInCU: 0xB230, offset: 0x21362, size: 0x8, addend: 0x0, symName: __ZNSt3__16vectorIN2sf7Vector2IiEENS_9allocatorIS3_EEE21_ConstructTransactionD2B7v160006Ev, symObjAddr: 0x1E54, symBinAddr: 0x100005328, symSize: 0x20 }
  - { offsetInCU: 0xB25A, offset: 0x2138C, size: 0x8, addend: 0x0, symName: __ZNSt3__16vectorIN2sf7Vector2IiEENS_9allocatorIS3_EEE27__invalidate_iterators_pastB7v160006EPS3_, symObjAddr: 0x1E74, symBinAddr: 0x100005348, symSize: 0x14 }
  - { offsetInCU: 0xB291, offset: 0x213C3, size: 0x8, addend: 0x0, symName: __ZNKSt3__16vectorIN2sf7Vector2IiEENS_9allocatorIS3_EEE17__annotate_shrinkB7v160006Em, symObjAddr: 0x1E88, symBinAddr: 0x10000535C, symSize: 0xB4 }
  - { offsetInCU: 0xB2C6, offset: 0x213F8, size: 0x8, addend: 0x0, symName: __ZNSt3__16vectorIN2sf7Vector2IiEENS_9allocatorIS3_EEE5clearB7v160006Ev, symObjAddr: 0x1F3C, symBinAddr: 0x100005410, symSize: 0x54 }
  - { offsetInCU: 0xB2FB, offset: 0x2142D, size: 0x8, addend: 0x0, symName: __ZNSt3__16vectorIN2sf7Vector2IiEENS_9allocatorIS3_EEE9__end_capB7v160006Ev, symObjAddr: 0x1F90, symBinAddr: 0x100005464, symSize: 0x28 }
  - { offsetInCU: 0xB321, offset: 0x21453, size: 0x8, addend: 0x0, symName: __ZNSt3__117__compressed_pairIPN2sf7Vector2IiEENS_9allocatorIS3_EEE5firstB7v160006Ev, symObjAddr: 0x1FB8, symBinAddr: 0x10000548C, symSize: 0x24 }
  - { offsetInCU: 0xB347, offset: 0x21479, size: 0x8, addend: 0x0, symName: __ZNSt3__122__compressed_pair_elemIPN2sf7Vector2IiEELi0ELb0EE5__getB7v160006Ev, symObjAddr: 0x1FDC, symBinAddr: 0x1000054B0, symSize: 0x14 }
  - { offsetInCU: 0xB36D, offset: 0x2149F, size: 0x8, addend: 0x0, symName: __ZNKSt3__16vectorIN2sf7Vector2IiEENS_9allocatorIS3_EEE8max_sizeEv, symObjAddr: 0x1FF0, symBinAddr: 0x1000054C4, symSize: 0x60 }
  - { offsetInCU: 0xB395, offset: 0x214C7, size: 0x8, addend: 0x0, symName: __ZNKSt3__16vectorIN2sf7Vector2IiEENS_9allocatorIS3_EEE20__throw_length_errorB7v160006Ev, symObjAddr: 0x2050, symBinAddr: 0x100005524, symSize: 0x1C }
  - { offsetInCU: 0xB3BB, offset: 0x214ED, size: 0x8, addend: 0x0, symName: __ZNKSt3__16vectorIN2sf7Vector2IiEENS_9allocatorIS3_EEE14__annotate_newB7v160006Em, symObjAddr: 0x20AC, symBinAddr: 0x100005580, symSize: 0xAC }
  - { offsetInCU: 0xB3FA, offset: 0x2152C, size: 0x8, addend: 0x0, symName: __ZNSt3__116allocator_traitsINS_9allocatorIN2sf7Vector2IiEEEEE8max_sizeB7v160006IS5_vEEmRKS5_, symObjAddr: 0x2184, symBinAddr: 0x100005658, symSize: 0x24 }
  - { offsetInCU: 0xB428, offset: 0x2155A, size: 0x8, addend: 0x0, symName: __ZNKSt3__16vectorIN2sf7Vector2IiEENS_9allocatorIS3_EEE7__allocB7v160006Ev, symObjAddr: 0x21A8, symBinAddr: 0x10000567C, symSize: 0x28 }
  - { offsetInCU: 0xB44E, offset: 0x21580, size: 0x8, addend: 0x0, symName: __ZNSt3__114numeric_limitsIlE3maxB7v160006Ev, symObjAddr: 0x21D0, symBinAddr: 0x1000056A4, symSize: 0x14 }
  - { offsetInCU: 0xB46C, offset: 0x2159E, size: 0x8, addend: 0x0, symName: __ZNKSt3__16__lessImmEclB7v160006ERKmS3_, symObjAddr: 0x2238, symBinAddr: 0x10000570C, symSize: 0x34 }
  - { offsetInCU: 0xB4AE, offset: 0x215E0, size: 0x8, addend: 0x0, symName: __ZNKSt3__19allocatorIN2sf7Vector2IiEEE8max_sizeB7v160006Ev, symObjAddr: 0x226C, symBinAddr: 0x100005740, symSize: 0x14 }
  - { offsetInCU: 0xB4D4, offset: 0x21606, size: 0x8, addend: 0x0, symName: __ZNKSt3__117__compressed_pairIPN2sf7Vector2IiEENS_9allocatorIS3_EEE6secondB7v160006Ev, symObjAddr: 0x2280, symBinAddr: 0x100005754, symSize: 0x24 }
  - { offsetInCU: 0xB4FA, offset: 0x2162C, size: 0x8, addend: 0x0, symName: __ZNKSt3__122__compressed_pair_elemINS_9allocatorIN2sf7Vector2IiEEEELi1ELb1EE5__getB7v160006Ev, symObjAddr: 0x22A4, symBinAddr: 0x100005778, symSize: 0x14 }
  - { offsetInCU: 0xB520, offset: 0x21652, size: 0x8, addend: 0x0, symName: __ZNSt3__123__libcpp_numeric_limitsIlLb1EE3maxB7v160006Ev, symObjAddr: 0x22B8, symBinAddr: 0x10000578C, symSize: 0x8 }
  - { offsetInCU: 0xB534, offset: 0x21666, size: 0x8, addend: 0x0, symName: __ZNSt12length_errorC1B7v160006EPKc, symObjAddr: 0x2324, symBinAddr: 0x1000057F8, symSize: 0x34 }
  - { offsetInCU: 0xB56C, offset: 0x2169E, size: 0x8, addend: 0x0, symName: __ZNSt12length_errorC2B7v160006EPKc, symObjAddr: 0x2358, symBinAddr: 0x10000582C, symSize: 0x4C }
  - { offsetInCU: 0xB5A4, offset: 0x216D6, size: 0x8, addend: 0x0, symName: __ZNSt3__19allocatorIN2sf7Vector2IiEEE8allocateB7v160006Em, symObjAddr: 0x23A4, symBinAddr: 0x100005878, symSize: 0x58 }
  - { offsetInCU: 0xB5D8, offset: 0x2170A, size: 0x8, addend: 0x0, symName: __ZN2sf7Vector2IfEC2Eff, symObjAddr: 0x2560, symBinAddr: 0x100005A34, symSize: 0x2C }
  - { offsetInCU: 0xB620, offset: 0x21752, size: 0x8, addend: 0x0, symName: __ZNSt3__16vectorIN2sf7Vector2IiEENS_9allocatorIS3_EEE11__make_iterB7v160006EPS3_, symObjAddr: 0x258C, symBinAddr: 0x100005A60, symSize: 0x34 }
  - { offsetInCU: 0xB655, offset: 0x21787, size: 0x8, addend: 0x0, symName: __ZNSt3__111__wrap_iterIPN2sf7Vector2IiEEEC1B7v160006EPKvS4_, symObjAddr: 0x25C0, symBinAddr: 0x100005A94, symSize: 0x3C }
  - { offsetInCU: 0xB69B, offset: 0x217CD, size: 0x8, addend: 0x0, symName: __ZNSt3__111__wrap_iterIPN2sf7Vector2IiEEEC2B7v160006EPKvS4_, symObjAddr: 0x25FC, symBinAddr: 0x100005AD0, symSize: 0x24 }
  - { offsetInCU: 0xB6E1, offset: 0x21813, size: 0x8, addend: 0x0, symName: __ZNSt3__16vectorIN2sf7Vector2IiEENS_9allocatorIS3_EEE22__construct_one_at_endB7v160006IJRKS3_EEEvDpOT_, symObjAddr: 0x2668, symBinAddr: 0x100005B3C, symSize: 0x90 }
  - { offsetInCU: 0xB730, offset: 0x21862, size: 0x8, addend: 0x0, symName: __ZNSt3__16vectorIN2sf7Vector2IiEENS_9allocatorIS3_EEE12__move_rangeEPS3_S7_S7_, symObjAddr: 0x26F8, symBinAddr: 0x100005BCC, symSize: 0x12C }
  - { offsetInCU: 0xB7EC, offset: 0x2191E, size: 0x8, addend: 0x0, symName: __ZNSt3__114pointer_traitsIPKN2sf7Vector2IiEEE10pointer_toB7v160006ERS4_, symObjAddr: 0x2824, symBinAddr: 0x100005CF8, symSize: 0x14 }
  - { offsetInCU: 0xB80F, offset: 0x21941, size: 0x8, addend: 0x0, symName: __ZNSt3__114__split_bufferIN2sf7Vector2IiEERNS_9allocatorIS3_EEEC1EmmS6_, symObjAddr: 0x2838, symBinAddr: 0x100005D0C, symSize: 0x44 }
  - { offsetInCU: 0xB865, offset: 0x21997, size: 0x8, addend: 0x0, symName: __ZNSt3__114__split_bufferIN2sf7Vector2IiEERNS_9allocatorIS3_EEE9push_backB7v160006ERKS3_, symObjAddr: 0x287C, symBinAddr: 0x100005D50, symSize: 0x260 }
  - { offsetInCU: 0xB8DE, offset: 0x21A10, size: 0x8, addend: 0x0, symName: __ZNSt3__114__split_bufferIN2sf7Vector2IiEERNS_9allocatorIS3_EEED1Ev, symObjAddr: 0x2C30, symBinAddr: 0x100006104, symSize: 0x2C }
  - { offsetInCU: 0xB90A, offset: 0x21A3C, size: 0x8, addend: 0x0, symName: __ZNKSt3__111__wrap_iterIPKN2sf7Vector2IiEEE4baseB7v160006Ev, symObjAddr: 0x2C5C, symBinAddr: 0x100006130, symSize: 0x18 }
  - { offsetInCU: 0xB930, offset: 0x21A62, size: 0x8, addend: 0x0, symName: __ZNSt3__116allocator_traitsINS_9allocatorIN2sf7Vector2IiEEEEE9constructB7v160006IS4_JRKS4_EvEEvRS5_PT_DpOT0_, symObjAddr: 0x2C74, symBinAddr: 0x100006148, symSize: 0x34 }
  - { offsetInCU: 0xB987, offset: 0x21AB9, size: 0x8, addend: 0x0, symName: __ZNSt3__19allocatorIN2sf7Vector2IiEEE9constructB7v160006IS3_JRKS3_EEEvPT_DpOT0_, symObjAddr: 0x2CA8, symBinAddr: 0x10000617C, symSize: 0x28 }
  - { offsetInCU: 0xB9DD, offset: 0x21B0F, size: 0x8, addend: 0x0, symName: __ZNSt3__116allocator_traitsINS_9allocatorIN2sf7Vector2IiEEEEE9constructB7v160006IS4_JS4_EvEEvRS5_PT_DpOT0_, symObjAddr: 0x2CD0, symBinAddr: 0x1000061A4, symSize: 0x34 }
  - { offsetInCU: 0xBA34, offset: 0x21B66, size: 0x8, addend: 0x0, symName: __ZNSt3__19allocatorIN2sf7Vector2IiEEE9constructB7v160006IS3_JS3_EEEvPT_DpOT0_, symObjAddr: 0x2D44, symBinAddr: 0x100006218, symSize: 0x28 }
  - { offsetInCU: 0xBAAD, offset: 0x21BDF, size: 0x8, addend: 0x0, symName: __ZNKSt3__123__move_backward_trivialclB7v160006IN2sf7Vector2IiEES4_Li0EEENS_4pairIPT_PT0_EES7_S7_S9_, symObjAddr: 0x2F08, symBinAddr: 0x1000063DC, symSize: 0x48 }
  - { offsetInCU: 0xBB16, offset: 0x21C48, size: 0x8, addend: 0x0, symName: __ZNSt3__14pairIPN2sf7Vector2IiEES4_EC1B7v160006IRS4_S7_LPv0EEEOT_OT0_, symObjAddr: 0x3080, symBinAddr: 0x100006554, symSize: 0x3C }
  - { offsetInCU: 0xBB75, offset: 0x21CA7, size: 0x8, addend: 0x0, symName: __ZNSt3__14pairIPN2sf7Vector2IiEES4_EC2B7v160006IRS4_S7_LPv0EEEOT_OT0_, symObjAddr: 0x30BC, symBinAddr: 0x100006590, symSize: 0x34 }
  - { offsetInCU: 0xBBD4, offset: 0x21D06, size: 0x8, addend: 0x0, symName: __ZNSt3__14pairIPN2sf7Vector2IiEES4_EC1B7v160006IS4_S4_LPv0EEEOT_OT0_, symObjAddr: 0x30F0, symBinAddr: 0x1000065C4, symSize: 0x3C }
  - { offsetInCU: 0xBC33, offset: 0x21D65, size: 0x8, addend: 0x0, symName: __ZNSt3__14pairIPN2sf7Vector2IiEES4_EC2B7v160006IS4_S4_LPv0EEEOT_OT0_, symObjAddr: 0x312C, symBinAddr: 0x100006600, symSize: 0x34 }
  - { offsetInCU: 0xBC92, offset: 0x21DC4, size: 0x8, addend: 0x0, symName: __ZNSt3__114__split_bufferIN2sf7Vector2IiEERNS_9allocatorIS3_EEEC2EmmS6_, symObjAddr: 0x3160, symBinAddr: 0x100006634, symSize: 0xD4 }
  - { offsetInCU: 0xBD05, offset: 0x21E37, size: 0x8, addend: 0x0, symName: __ZNSt3__117__compressed_pairIPN2sf7Vector2IiEERNS_9allocatorIS3_EEEC1B7v160006IDnS7_EEOT_OT0_, symObjAddr: 0x3234, symBinAddr: 0x100006708, symSize: 0x3C }
  - { offsetInCU: 0xBD5D, offset: 0x21E8F, size: 0x8, addend: 0x0, symName: __ZNSt3__114__split_bufferIN2sf7Vector2IiEERNS_9allocatorIS3_EEE7__allocB7v160006Ev, symObjAddr: 0x3270, symBinAddr: 0x100006744, symSize: 0x28 }
  - { offsetInCU: 0xBD83, offset: 0x21EB5, size: 0x8, addend: 0x0, symName: __ZNSt3__114__split_bufferIN2sf7Vector2IiEERNS_9allocatorIS3_EEE9__end_capB7v160006Ev, symObjAddr: 0x3298, symBinAddr: 0x10000676C, symSize: 0x28 }
  - { offsetInCU: 0xBDA9, offset: 0x21EDB, size: 0x8, addend: 0x0, symName: __ZNSt3__117__compressed_pairIPN2sf7Vector2IiEERNS_9allocatorIS3_EEEC2B7v160006IDnS7_EEOT_OT0_, symObjAddr: 0x32C0, symBinAddr: 0x100006794, symSize: 0x48 }
  - { offsetInCU: 0xBE01, offset: 0x21F33, size: 0x8, addend: 0x0, symName: __ZNSt3__122__compressed_pair_elemIRNS_9allocatorIN2sf7Vector2IiEEEELi1ELb0EEC2B7v160006IS6_vEEOT_, symObjAddr: 0x3308, symBinAddr: 0x1000067DC, symSize: 0x20 }
  - { offsetInCU: 0xBE43, offset: 0x21F75, size: 0x8, addend: 0x0, symName: __ZNSt3__117__compressed_pairIPN2sf7Vector2IiEERNS_9allocatorIS3_EEE6secondB7v160006Ev, symObjAddr: 0x3328, symBinAddr: 0x1000067FC, symSize: 0x28 }
  - { offsetInCU: 0xBE69, offset: 0x21F9B, size: 0x8, addend: 0x0, symName: __ZNSt3__122__compressed_pair_elemIRNS_9allocatorIN2sf7Vector2IiEEEELi1ELb0EE5__getB7v160006Ev, symObjAddr: 0x3350, symBinAddr: 0x100006824, symSize: 0x18 }
  - { offsetInCU: 0xBE8F, offset: 0x21FC1, size: 0x8, addend: 0x0, symName: __ZNSt3__117__compressed_pairIPN2sf7Vector2IiEERNS_9allocatorIS3_EEE5firstB7v160006Ev, symObjAddr: 0x3368, symBinAddr: 0x10000683C, symSize: 0x24 }
  - { offsetInCU: 0xBEB5, offset: 0x21FE7, size: 0x8, addend: 0x0, symName: __ZNSt3__114__split_bufferIN2sf7Vector2IiEERNS_9allocatorIS3_EEE18__construct_at_endINS_13move_iteratorIPS3_EEEENS_9enable_ifIXsr27__is_cpp17_forward_iteratorIT_EE5valueEvE4typeESD_SD_, symObjAddr: 0x33CC, symBinAddr: 0x1000068A0, symSize: 0xFC }
  - { offsetInCU: 0xBF11, offset: 0x22043, size: 0x8, addend: 0x0, symName: __ZNSt3__113move_iteratorIPN2sf7Vector2IiEEEC1B7v160006ES4_, symObjAddr: 0x34C8, symBinAddr: 0x10000699C, symSize: 0x34 }
  - { offsetInCU: 0xBF53, offset: 0x22085, size: 0x8, addend: 0x0, symName: __ZNKSt3__114__move_trivialclB7v160006IN2sf7Vector2IiEES4_Li0EEENS_4pairIPT_PT0_EES7_S7_S9_, symObjAddr: 0x3674, symBinAddr: 0x100006B48, symSize: 0x48 }
  - { offsetInCU: 0xBFBC, offset: 0x220EE, size: 0x8, addend: 0x0, symName: __ZNSt3__14pairIPN2sf7Vector2IiEES4_EC1B7v160006IRS4_S4_LPv0EEEOT_OT0_, symObjAddr: 0x3778, symBinAddr: 0x100006C4C, symSize: 0x3C }
  - { offsetInCU: 0xC01B, offset: 0x2214D, size: 0x8, addend: 0x0, symName: __ZNSt3__14pairIPN2sf7Vector2IiEES4_EC2B7v160006IRS4_S4_LPv0EEEOT_OT0_, symObjAddr: 0x37B4, symBinAddr: 0x100006C88, symSize: 0x34 }
  - { offsetInCU: 0xC084, offset: 0x221B6, size: 0x8, addend: 0x0, symName: __ZNSt3__114__split_bufferIN2sf7Vector2IiEERNS_9allocatorIS3_EEE21_ConstructTransactionC1B7v160006EPPS3_m, symObjAddr: 0x3824, symBinAddr: 0x100006CF8, symSize: 0x3C }
  - { offsetInCU: 0xC0CA, offset: 0x221FC, size: 0x8, addend: 0x0, symName: __ZNKSt3__113move_iteratorIPN2sf7Vector2IiEEEdeB7v160006Ev, symObjAddr: 0x3860, symBinAddr: 0x100006D34, symSize: 0x18 }
  - { offsetInCU: 0xC0F0, offset: 0x22222, size: 0x8, addend: 0x0, symName: __ZNSt3__113move_iteratorIPN2sf7Vector2IiEEEppB7v160006Ev, symObjAddr: 0x3878, symBinAddr: 0x100006D4C, symSize: 0x20 }
  - { offsetInCU: 0xC116, offset: 0x22248, size: 0x8, addend: 0x0, symName: __ZNSt3__114__split_bufferIN2sf7Vector2IiEERNS_9allocatorIS3_EEE21_ConstructTransactionD1B7v160006Ev, symObjAddr: 0x3898, symBinAddr: 0x100006D6C, symSize: 0x2C }
  - { offsetInCU: 0xC140, offset: 0x22272, size: 0x8, addend: 0x0, symName: __ZNKSt3__113move_iteratorIPN2sf7Vector2IiEEE4baseB7v160006Ev, symObjAddr: 0x393C, symBinAddr: 0x100006E10, symSize: 0x18 }
  - { offsetInCU: 0xC166, offset: 0x22298, size: 0x8, addend: 0x0, symName: __ZNSt3__114__split_bufferIN2sf7Vector2IiEERNS_9allocatorIS3_EEE21_ConstructTransactionC2B7v160006EPPS3_m, symObjAddr: 0x3954, symBinAddr: 0x100006E28, symSize: 0x44 }
  - { offsetInCU: 0xC1AC, offset: 0x222DE, size: 0x8, addend: 0x0, symName: __ZNSt3__114__split_bufferIN2sf7Vector2IiEERNS_9allocatorIS3_EEE21_ConstructTransactionD2B7v160006Ev, symObjAddr: 0x3998, symBinAddr: 0x100006E6C, symSize: 0x20 }
  - { offsetInCU: 0xC1D6, offset: 0x22308, size: 0x8, addend: 0x0, symName: __ZNSt3__113move_iteratorIPN2sf7Vector2IiEEEC2B7v160006ES4_, symObjAddr: 0x39B8, symBinAddr: 0x100006E8C, symSize: 0x20 }
  - { offsetInCU: 0xC20E, offset: 0x22340, size: 0x8, addend: 0x0, symName: __ZNSt3__116reverse_iteratorIPN2sf7Vector2IiEEEC1B7v160006ES4_, symObjAddr: 0x3A50, symBinAddr: 0x100006F24, symSize: 0x34 }
  - { offsetInCU: 0xC246, offset: 0x22378, size: 0x8, addend: 0x0, symName: __ZNKSt3__116reverse_iteratorIPN2sf7Vector2IiEEE4baseB7v160006Ev, symObjAddr: 0x3A84, symBinAddr: 0x100006F58, symSize: 0x18 }
  - { offsetInCU: 0xC28F, offset: 0x223C1, size: 0x8, addend: 0x0, symName: __ZNKSt3__111__move_loopINS_17_ClassicAlgPolicyEEclB7v160006INS_16reverse_iteratorIPN2sf7Vector2IiEEEES9_S9_EENS_4pairIT_T1_EESB_T0_SC_, symObjAddr: 0x3DC4, symBinAddr: 0x100007298, symSize: 0xA0 }
  - { offsetInCU: 0xC2FA, offset: 0x2242C, size: 0x8, addend: 0x0, symName: __ZNSt3__18_IterOpsINS_17_ClassicAlgPolicyEE11__iter_moveB7v160006IRNS_16reverse_iteratorIPN2sf7Vector2IiEEEEEENS_9enable_ifIXsr12is_referenceIDTdeclsr3stdE7declvalIRT_EEEEE5valueEDTclsr3stdE4movedeclsr3stdE7declvalISD_EEEEE4typeEOSC_, symObjAddr: 0x3FF8, symBinAddr: 0x1000074CC, symSize: 0x28 }
  - { offsetInCU: 0xC326, offset: 0x22458, size: 0x8, addend: 0x0, symName: __ZNKSt3__116reverse_iteratorIPN2sf7Vector2IiEEEdeB7v160006Ev, symObjAddr: 0x4020, symBinAddr: 0x1000074F4, symSize: 0x28 }
  - { offsetInCU: 0xC35B, offset: 0x2248D, size: 0x8, addend: 0x0, symName: __ZNSt3__116reverse_iteratorIPN2sf7Vector2IiEEEppB7v160006Ev, symObjAddr: 0x4048, symBinAddr: 0x10000751C, symSize: 0x20 }
  - { offsetInCU: 0xC381, offset: 0x224B3, size: 0x8, addend: 0x0, symName: __ZNSt3__18_IterOpsINS_17_ClassicAlgPolicyEE25__validate_iter_referenceB7v160006IRNS_16reverse_iteratorIPN2sf7Vector2IiEEEEEEvv, symObjAddr: 0x4068, symBinAddr: 0x10000753C, symSize: 0x4 }
  - { offsetInCU: 0xC39F, offset: 0x224D1, size: 0x8, addend: 0x0, symName: __ZNSt3__118__unwrap_iter_implINS_16reverse_iteratorIPN2sf7Vector2IiEEEELb0EE8__unwrapB7v160006ES6_, symObjAddr: 0x406C, symBinAddr: 0x100007540, symSize: 0x24 }
  - { offsetInCU: 0xC3C7, offset: 0x224F9, size: 0x8, addend: 0x0, symName: __ZNSt3__14pairINS_16reverse_iteratorIPN2sf7Vector2IiEEEES6_EC1B7v160006IS6_S6_LPv0EEEOT_OT0_, symObjAddr: 0x4090, symBinAddr: 0x100007564, symSize: 0x3C }
  - { offsetInCU: 0xC426, offset: 0x22558, size: 0x8, addend: 0x0, symName: __ZNSt3__14pairINS_16reverse_iteratorIPN2sf7Vector2IiEEEES6_EC2B7v160006IS6_S6_LPv0EEEOT_OT0_, symObjAddr: 0x40CC, symBinAddr: 0x1000075A0, symSize: 0x34 }
  - { offsetInCU: 0xC485, offset: 0x225B7, size: 0x8, addend: 0x0, symName: __ZNSt3__118__unwrap_iter_implINS_16reverse_iteratorIPN2sf7Vector2IiEEEELb0EE8__rewrapB7v160006ES6_S6_, symObjAddr: 0x4100, symBinAddr: 0x1000075D4, symSize: 0x2C }
  - { offsetInCU: 0xC4B3, offset: 0x225E5, size: 0x8, addend: 0x0, symName: __ZNSt3__116reverse_iteratorIPN2sf7Vector2IiEEEC2B7v160006ES4_, symObjAddr: 0x412C, symBinAddr: 0x100007600, symSize: 0x28 }
  - { offsetInCU: 0xC4EB, offset: 0x2261D, size: 0x8, addend: 0x0, symName: __ZNSt3__114__split_bufferIN2sf7Vector2IiEERNS_9allocatorIS3_EEED2Ev, symObjAddr: 0x4154, symBinAddr: 0x100007628, symSize: 0x8C }
  - { offsetInCU: 0xC517, offset: 0x22649, size: 0x8, addend: 0x0, symName: __ZNSt3__114__split_bufferIN2sf7Vector2IiEERNS_9allocatorIS3_EEE5clearB7v160006Ev, symObjAddr: 0x41E0, symBinAddr: 0x1000076B4, symSize: 0x28 }
  - { offsetInCU: 0xC53D, offset: 0x2266F, size: 0x8, addend: 0x0, symName: __ZNKSt3__114__split_bufferIN2sf7Vector2IiEERNS_9allocatorIS3_EEE8capacityB7v160006Ev, symObjAddr: 0x4208, symBinAddr: 0x1000076DC, symSize: 0x40 }
  - { offsetInCU: 0xC563, offset: 0x22695, size: 0x8, addend: 0x0, symName: __ZNSt3__114__split_bufferIN2sf7Vector2IiEERNS_9allocatorIS3_EEE17__destruct_at_endB7v160006EPS3_, symObjAddr: 0x4248, symBinAddr: 0x10000771C, symSize: 0x2C }
  - { offsetInCU: 0xC597, offset: 0x226C9, size: 0x8, addend: 0x0, symName: __ZNSt3__114__split_bufferIN2sf7Vector2IiEERNS_9allocatorIS3_EEE17__destruct_at_endB7v160006EPS3_NS_17integral_constantIbLb0EEE, symObjAddr: 0x4274, symBinAddr: 0x100007748, symSize: 0x80 }
  - { offsetInCU: 0xC5D8, offset: 0x2270A, size: 0x8, addend: 0x0, symName: __ZNKSt3__114__split_bufferIN2sf7Vector2IiEERNS_9allocatorIS3_EEE9__end_capB7v160006Ev, symObjAddr: 0x42F4, symBinAddr: 0x1000077C8, symSize: 0x28 }
  - { offsetInCU: 0xC5FE, offset: 0x22730, size: 0x8, addend: 0x0, symName: __ZNKSt3__117__compressed_pairIPN2sf7Vector2IiEERNS_9allocatorIS3_EEE5firstB7v160006Ev, symObjAddr: 0x431C, symBinAddr: 0x1000077F0, symSize: 0x24 }
...
